target datalayout = "e-m:e-p270:32:32-p271:32:32-p272:64:64-i64:64-i128:128-f80:128-n8:16:32:64-S128"
target triple = "x86_64-pc-linux-gnu"

%struct.FunctionCallInfoBaseData = type { ptr, ptr, ptr, i32, i8, i16, [0 x %struct.NullableDatum] }
%struct.NullableDatum = type { i64, i8 }
%struct.Interval = type { i64, i32, i32 }

@.str.3 = private unnamed_addr constant [7 x i8] c"date.c\00", align 1
@.str.26 = private unnamed_addr constant [55 x i8] c"invalid preceding or following size in window function\00", align 1
@__func__.in_range_time_interval = private unnamed_addr constant [23 x i8] c"in_range_time_interval\00", align 1

; Function Attrs: inlinehint nounwind uwtable
define internal ptr @DatumGetPointer(i64 noundef %0) #4 {
  %2 = alloca i64, align 8
  store i64 %0, ptr %2, align 8
  %3 = load i64, ptr %2, align 8
  %4 = inttoptr i64 %3 to ptr
  ret ptr %4
}

; Function Attrs: inlinehint nounwind uwtable
define internal i64 @DatumGetInt64(i64 noundef %0) #4 {
  %2 = alloca i64, align 8
  store i64 %0, ptr %2, align 8
  %3 = load i64, ptr %2, align 8
  ret i64 %3
}

; Function Attrs: inlinehint nounwind uwtable
define internal i64 @BoolGetDatum(i1 noundef zeroext %0) #4 {
  %2 = alloca i8, align 1
  %3 = zext i1 %0 to i8
  store i8 %3, ptr %2, align 1
  %4 = load i8, ptr %2, align 1, !range !4, !noundef !5
  %5 = trunc i8 %4 to i1
  %6 = select i1 %5, i32 1, i32 0
  %7 = sext i32 %6 to i64
  ret i64 %7
}

; Function Attrs: inlinehint nounwind uwtable
define internal zeroext i1 @pg_add_s64_overflow(i64 noundef %0, i64 noundef %1, ptr noundef %2) #4 {
  %4 = alloca i64, align 8
  %5 = alloca i64, align 8
  %6 = alloca ptr, align 8
  store i64 %0, ptr %4, align 8
  store i64 %1, ptr %5, align 8
  store ptr %2, ptr %6, align 8
  %7 = load i64, ptr %4, align 8
  %8 = load i64, ptr %5, align 8
  %9 = load ptr, ptr %6, align 8
  %10 = call { i64, i1 } @llvm.sadd.with.overflow.i64(i64 %7, i64 %8)
  %11 = extractvalue { i64, i1 } %10, 1
  %12 = extractvalue { i64, i1 } %10, 0
  store i64 %12, ptr %9, align 8
  ret i1 %11
}

; Function Attrs: inlinehint nounwind uwtable
define internal zeroext i1 @DatumGetBool(i64 noundef %0) #4 {
  %2 = alloca i64, align 8
  store i64 %0, ptr %2, align 8
  %3 = load i64, ptr %2, align 8
  %4 = icmp ne i64 %3, 0
  ret i1 %4
}

; Function Attrs: inlinehint nounwind uwtable
define internal ptr @DatumGetIntervalP(i64 noundef %0) #4 {
  %2 = alloca i64, align 8
  store i64 %0, ptr %2, align 8
  %3 = load i64, ptr %2, align 8
  %4 = call ptr @DatumGetPointer(i64 noundef %3)
  ret ptr %4
}

; Function Attrs: inlinehint nounwind uwtable
define internal i64 @DatumGetTimeADT(i64 noundef %0) #4 {
  %2 = alloca i64, align 8
  store i64 %0, ptr %2, align 8
  %3 = load i64, ptr %2, align 8
  %4 = call i64 @DatumGetInt64(i64 noundef %3)
  ret i64 %4
}

; Function Attrs: nounwind uwtable
define dso_local i64 @in_range_time_interval(ptr noundef %0) #0 {
  %2 = alloca i64, align 8
  %3 = alloca ptr, align 8
  %4 = alloca i64, align 8
  %5 = alloca i64, align 8
  %6 = alloca ptr, align 8
  %7 = alloca i8, align 1
  %8 = alloca i8, align 1
  %9 = alloca i64, align 8
  %10 = alloca i32, align 4
  store ptr %0, ptr %3, align 8
  call void @llvm.lifetime.start.p0(i64 8, ptr %4) #9
  %11 = load ptr, ptr %3, align 8
  %12 = getelementptr inbounds nuw %struct.FunctionCallInfoBaseData, ptr %11, i32 0, i32 6
  %13 = getelementptr inbounds [0 x %struct.NullableDatum], ptr %12, i64 0, i64 0
  %14 = getelementptr inbounds nuw %struct.NullableDatum, ptr %13, i32 0, i32 0
  %15 = load i64, ptr %14, align 8
  %16 = call i64 @DatumGetTimeADT(i64 noundef %15)
  store i64 %16, ptr %4, align 8
  call void @llvm.lifetime.start.p0(i64 8, ptr %5) #9
  %17 = load ptr, ptr %3, align 8
  %18 = getelementptr inbounds nuw %struct.FunctionCallInfoBaseData, ptr %17, i32 0, i32 6
  %19 = getelementptr inbounds [0 x %struct.NullableDatum], ptr %18, i64 0, i64 1
  %20 = getelementptr inbounds nuw %struct.NullableDatum, ptr %19, i32 0, i32 0
  %21 = load i64, ptr %20, align 8
  %22 = call i64 @DatumGetTimeADT(i64 noundef %21)
  store i64 %22, ptr %5, align 8
  call void @llvm.lifetime.start.p0(i64 8, ptr %6) #9
  %23 = load ptr, ptr %3, align 8
  %24 = getelementptr inbounds nuw %struct.FunctionCallInfoBaseData, ptr %23, i32 0, i32 6
  %25 = getelementptr inbounds [0 x %struct.NullableDatum], ptr %24, i64 0, i64 2
  %26 = getelementptr inbounds nuw %struct.NullableDatum, ptr %25, i32 0, i32 0
  %27 = load i64, ptr %26, align 8
  %28 = call ptr @DatumGetIntervalP(i64 noundef %27)
  store ptr %28, ptr %6, align 8
  call void @llvm.lifetime.start.p0(i64 1, ptr %7) #9
  %29 = load ptr, ptr %3, align 8
  %30 = getelementptr inbounds nuw %struct.FunctionCallInfoBaseData, ptr %29, i32 0, i32 6
  %31 = getelementptr inbounds [0 x %struct.NullableDatum], ptr %30, i64 0, i64 3
  %32 = getelementptr inbounds nuw %struct.NullableDatum, ptr %31, i32 0, i32 0
  %33 = load i64, ptr %32, align 8
  %34 = call zeroext i1 @DatumGetBool(i64 noundef %33)
  %35 = zext i1 %34 to i8
  store i8 %35, ptr %7, align 1
  call void @llvm.lifetime.start.p0(i64 1, ptr %8) #9
  %36 = load ptr, ptr %3, align 8
  %37 = getelementptr inbounds nuw %struct.FunctionCallInfoBaseData, ptr %36, i32 0, i32 6
  %38 = getelementptr inbounds [0 x %struct.NullableDatum], ptr %37, i64 0, i64 4
  %39 = getelementptr inbounds nuw %struct.NullableDatum, ptr %38, i32 0, i32 0
  %40 = load i64, ptr %39, align 8
  %41 = call zeroext i1 @DatumGetBool(i64 noundef %40)
  %42 = zext i1 %41 to i8
  store i8 %42, ptr %8, align 1
  call void @llvm.lifetime.start.p0(i64 8, ptr %9) #9
  %43 = load ptr, ptr %6, align 8
  %44 = getelementptr inbounds nuw %struct.Interval, ptr %43, i32 0, i32 0
  %45 = load i64, ptr %44, align 8
  %46 = icmp slt i64 %45, 0
  br i1 %46, label %47, label %59

47:                                               ; preds = %1
  br label %48

48:                                               ; preds = %47
  br i1 true, label %49, label %51

49:                                               ; preds = %48
  %50 = call zeroext i1 @errstart_cold(i32 noundef 21, ptr noundef null) #8
  br i1 %50, label %53, label %56

51:                                               ; preds = %48
  %52 = call zeroext i1 @errstart(i32 noundef 21, ptr noundef null)
  br i1 %52, label %53, label %56

53:                                               ; preds = %51, %49
  %54 = call i32 @errcode(i32 noundef 50593922)
  %55 = call i32 (ptr, ...) @errmsg(ptr noundef @.str.26)
  call void @errfinish(ptr noundef @.str.3, i32 noundef 2134, ptr noundef @__func__.in_range_time_interval)
  br label %56

56:                                               ; preds = %53, %51, %49
  unreachable

57:                                               ; No predecessors!
  br label %58

58:                                               ; preds = %57
  br label %59

59:                                               ; preds = %58, %1
  %60 = load i8, ptr %7, align 1, !range !4, !noundef !5
  %61 = trunc i8 %60 to i1
  br i1 %61, label %62, label %68

62:                                               ; preds = %59
  %63 = load i64, ptr %5, align 8
  %64 = load ptr, ptr %6, align 8
  %65 = getelementptr inbounds nuw %struct.Interval, ptr %64, i32 0, i32 0
  %66 = load i64, ptr %65, align 8
  %67 = sub i64 %63, %66
  store i64 %67, ptr %9, align 8
  br label %79

68:                                               ; preds = %59
  %69 = load i64, ptr %5, align 8
  %70 = load ptr, ptr %6, align 8
  %71 = getelementptr inbounds nuw %struct.Interval, ptr %70, i32 0, i32 0
  %72 = load i64, ptr %71, align 8
  %73 = call zeroext i1 @pg_add_s64_overflow(i64 noundef %69, i64 noundef %72, ptr noundef %9)
  br i1 %73, label %74, label %78

74:                                               ; preds = %68
  %75 = load i8, ptr %8, align 1, !range !4, !noundef !5
  %76 = trunc i8 %75 to i1
  %77 = call i64 @BoolGetDatum(i1 noundef zeroext %76)
  store i64 %77, ptr %2, align 8
  store i32 1, ptr %10, align 4
  br label %92

78:                                               ; preds = %68
  br label %79

79:                                               ; preds = %78, %62
  %80 = load i8, ptr %8, align 1, !range !4, !noundef !5
  %81 = trunc i8 %80 to i1
  br i1 %81, label %82, label %87

82:                                               ; preds = %79
  %83 = load i64, ptr %4, align 8
  %84 = load i64, ptr %9, align 8
  %85 = icmp sle i64 %83, %84
  %86 = call i64 @BoolGetDatum(i1 noundef zeroext %85)
  store i64 %86, ptr %2, align 8
  store i32 1, ptr %10, align 4
  br label %92

87:                                               ; preds = %79
  %88 = load i64, ptr %4, align 8
  %89 = load i64, ptr %9, align 8
  %90 = icmp sge i64 %88, %89
  %91 = call i64 @BoolGetDatum(i1 noundef zeroext %90)
  store i64 %91, ptr %2, align 8
  store i32 1, ptr %10, align 4
  br label %92

92:                                               ; preds = %87, %82, %74
  call void @llvm.lifetime.end.p0(i64 8, ptr %9) #9
  call void @llvm.lifetime.end.p0(i64 1, ptr %8) #9
  call void @llvm.lifetime.end.p0(i64 1, ptr %7) #9
  call void @llvm.lifetime.end.p0(i64 8, ptr %6) #9
  call void @llvm.lifetime.end.p0(i64 8, ptr %5) #9
  call void @llvm.lifetime.end.p0(i64 8, ptr %4) #9
  %93 = load i64, ptr %2, align 8
  ret i64 %93
}