; Function Attrs: nounwind uwtable
define dso_local range(i64 0, 2) i64 @in_range_time_interval(ptr noundef readonly captures(none) %0) local_unnamed_addr #0 {
  %2 = getelementptr inbounds nuw i8, ptr %0, i64 32
  %3 = load i64, ptr %2, align 8
  %4 = getelementptr inbounds nuw i8, ptr %0, i64 48
  %5 = load i64, ptr %4, align 8
  %6 = getelementptr inbounds nuw i8, ptr %0, i64 64
  %7 = load i64, ptr %6, align 8
  %8 = inttoptr i64 %7 to ptr
  %9 = getelementptr inbounds nuw i8, ptr %0, i64 96
  %10 = load i64, ptr %9, align 8
  %11 = icmp ne i64 %10, 0
  %12 = load i64, ptr %8, align 8
  %13 = icmp slt i64 %12, 0
  br i1 %13, label %14, label %18

14:                                               ; preds = %1
  %15 = tail call zeroext i1 @errstart_cold(i32 noundef 21, ptr noundef null) #15
  tail call void @llvm.assume(i1 %15)
  %16 = tail call i32 @errcode(i32 noundef 50593922) #16
  %17 = tail call i32 (ptr, ...) @errmsg(ptr noundef nonnull @.str.26) #16
  tail call void @errfinish(ptr noundef nonnull @.str.3, i32 noundef 2134, ptr noundef nonnull @__func__.in_range_time_interval) #16
  unreachable

18:                                               ; preds = %1
  %19 = getelementptr inbounds nuw i8, ptr %0, i64 80
  %20 = load i64, ptr %19, align 8
  %.not = icmp eq i64 %20, 0
  br i1 %.not, label %23, label %21

21:                                               ; preds = %18
  %22 = sub i64 %5, %12
  br label %27

23:                                               ; preds = %18
  %24 = tail call { i64, i1 } @llvm.sadd.with.overflow.i64(i64 %5, i64 range(i64 0, -9223372036854775808) %12)
  %25 = extractvalue { i64, i1 } %24, 1
  %26 = extractvalue { i64, i1 } %24, 0
  br i1 %25, label %32, label %27

27:                                               ; preds = %23, %21
  %.017 = phi i64 [ %22, %21 ], [ %26, %23 ]
  br i1 %11, label %28, label %30

28:                                               ; preds = %27
  %29 = icmp sle i64 %3, %.017
  br label %32

30:                                               ; preds = %27
  %31 = icmp sge i64 %3, %.017
  br label %32

32:                                               ; preds = %23, %30, %28
  %.0.in = phi i1 [ %29, %28 ], [ %31, %30 ], [ %11, %23 ]
  %.0 = zext i1 %.0.in to i64
  ret i64 %.0
}